; ModuleID = 'source-C-CXX/12/1360.cpp'
source_filename = "source-C-CXX/12/1360.cpp"
target datalayout = "e-m:e-p270:32:32-p271:32:32-p272:64:64-i64:64-f80:128-n8:16:32:64-S128"
target triple = "x86_64-pc-linux-gnu"

%"class.std::ios_base::Init" = type { i8 }
%"class.std::basic_istream" = type { i32 (...)**, i64, %"class.std::basic_ios" }
%"class.std::basic_ios" = type { %"class.std::ios_base", %"class.std::basic_ostream"*, i8, i8, %"class.std::basic_streambuf"*, %"class.std::ctype"*, %"class.std::num_put"*, %"class.std::num_get"* }
%"class.std::ios_base" = type { i32 (...)**, i64, i64, i32, i32, i32, %"struct.std::ios_base::_Callback_list"*, %"struct.std::ios_base::_Words", [8 x %"struct.std::ios_base::_Words"], i32, %"struct.std::ios_base::_Words"*, %"class.std::locale" }
%"struct.std::ios_base::_Callback_list" = type { %"struct.std::ios_base::_Callback_list"*, void (i32, %"class.std::ios_base"*, i32)*, i32, i32 }
%"struct.std::ios_base::_Words" = type { i8*, i64 }
%"class.std::locale" = type { %"class.std::locale::_Impl"* }
%"class.std::locale::_Impl" = type { i32, %"class.std::locale::facet"**, i64, %"class.std::locale::facet"**, i8** }
%"class.std::locale::facet" = type <{ i32 (...)**, i32, [4 x i8] }>
%"class.std::basic_ostream" = type { i32 (...)**, %"class.std::basic_ios" }
%"class.std::basic_streambuf" = type { i32 (...)**, i8*, i8*, i8*, i8*, i8*, i8*, %"class.std::locale" }
%"class.std::ctype" = type <{ %"class.std::locale::facet.base", [4 x i8], %struct.__locale_struct*, i8, [7 x i8], i32*, i32*, i16*, i8, [256 x i8], [256 x i8], i8, [6 x i8] }>
%"class.std::locale::facet.base" = type <{ i32 (...)**, i32 }>
%struct.__locale_struct = type { [13 x %struct.__locale_data*], i16*, i32*, i32*, [13 x i8*] }
%struct.__locale_data = type opaque
%"class.std::num_put" = type { %"class.std::locale::facet.base", [4 x i8] }
%"class.std::num_get" = type { %"class.std::locale::facet.base", [4 x i8] }

@_ZStL8__ioinit = internal global %"class.std::ios_base::Init" zeroinitializer, align 1
@__dso_handle = external hidden global i8
@_ZSt3cin = external global %"class.std::basic_istream", align 8
@_ZSt4cout = external global %"class.std::basic_ostream", align 8
@llvm.global_ctors = appending global [1 x { i32, void ()*, i8* }] [{ i32, void ()*, i8* } { i32 65535, void ()* @_GLOBAL__sub_I_1360.cpp, i8* null }]

declare void @_ZNSt8ios_base4InitC1Ev(%"class.std::ios_base::Init"* nonnull align 1 dereferenceable(1)) unnamed_addr #0

; Function Attrs: nounwind
declare void @_ZNSt8ios_base4InitD1Ev(%"class.std::ios_base::Init"* nonnull align 1 dereferenceable(1)) unnamed_addr #1

; Function Attrs: nofree nounwind
declare i32 @__cxa_atexit(void (i8*)*, i8*, i8*) local_unnamed_addr #2

; Function Attrs: mustprogress norecurse sspstrong uwtable
define dso_local i32 @main() local_unnamed_addr #3 {
  %1 = alloca i8, align 1
  %2 = alloca i32, align 4
  %3 = alloca [20001 x i32], align 16
  %4 = alloca [20001 x i32], align 16
  %5 = bitcast i32* %2 to i8*
  call void @llvm.lifetime.start.p0i8(i64 4, i8* nonnull %5) #7
  %6 = bitcast [20001 x i32]* %3 to i8*
  call void @llvm.lifetime.start.p0i8(i64 80004, i8* nonnull %6) #7
  %7 = call nonnull align 8 dereferenceable(16) %"class.std::basic_istream"* @_ZNSirsERi(%"class.std::basic_istream"* nonnull align 8 dereferenceable(16) @_ZSt3cin, i32* nonnull align 4 dereferenceable(4) %2)
  %8 = load i32, i32* %2, align 4, !tbaa !5
  %9 = icmp sgt i32 %8, 0
  br i1 %9, label %19, label %10

10:                                               ; preds = %0
  %11 = bitcast [20001 x i32]* %4 to i8*
  call void @llvm.lifetime.start.p0i8(i64 80004, i8* nonnull %11) #7
  br label %102

12:                                               ; preds = %19
  %13 = icmp sgt i32 %24, 0
  br i1 %13, label %16, label %14

14:                                               ; preds = %12
  %15 = bitcast [20001 x i32]* %4 to i8*
  call void @llvm.lifetime.start.p0i8(i64 80004, i8* nonnull %15) #7
  br label %102

16:                                               ; preds = %12
  %17 = zext i32 %24 to i64
  %18 = zext i32 %24 to i64
  br label %27

19:                                               ; preds = %0, %19
  %20 = phi i64 [ %23, %19 ], [ 0, %0 ]
  %21 = getelementptr inbounds [20001 x i32], [20001 x i32]* %3, i64 0, i64 %20
  %22 = call nonnull align 8 dereferenceable(16) %"class.std::basic_istream"* @_ZNSirsERi(%"class.std::basic_istream"* nonnull align 8 dereferenceable(16) @_ZSt3cin, i32* nonnull align 4 dereferenceable(4) %21)
  %23 = add nuw nsw i64 %20, 1
  %24 = load i32, i32* %2, align 4, !tbaa !5
  %25 = sext i32 %24 to i64
  %26 = icmp slt i64 %23, %25
  br i1 %26, label %19, label %12, !llvm.loop !9

27:                                               ; preds = %16, %48
  %28 = phi i64 [ 0, %16 ], [ %33, %48 ]
  %29 = phi i64 [ 1, %16 ], [ %49, %48 ]
  %30 = getelementptr inbounds [20001 x i32], [20001 x i32]* %3, i64 0, i64 %28
  %31 = load i32, i32* %30, align 4, !tbaa !5
  %32 = icmp ne i32 %31, 0
  %33 = add nuw nsw i64 %28, 1
  %34 = icmp ult i64 %33, %17
  %35 = select i1 %32, i1 %34, i1 false
  br i1 %35, label %36, label %48

36:                                               ; preds = %27, %46
  %37 = phi i32 [ %47, %46 ], [ %31, %27 ]
  %38 = phi i64 [ %44, %46 ], [ %29, %27 ]
  %39 = getelementptr inbounds [20001 x i32], [20001 x i32]* %3, i64 0, i64 %38
  %40 = load i32, i32* %39, align 4, !tbaa !5
  %41 = icmp eq i32 %37, %40
  br i1 %41, label %42, label %43

42:                                               ; preds = %36
  store i32 0, i32* %39, align 4, !tbaa !5
  br label %43

43:                                               ; preds = %36, %42
  %44 = add nuw nsw i64 %38, 1
  %45 = icmp eq i64 %44, %18
  br i1 %45, label %48, label %46, !llvm.loop !11

46:                                               ; preds = %43
  %47 = load i32, i32* %30, align 4, !tbaa !5
  br label %36

48:                                               ; preds = %43, %27
  %49 = add nuw nsw i64 %29, 1
  %50 = icmp eq i64 %33, %18
  br i1 %50, label %51, label %27, !llvm.loop !12

51:                                               ; preds = %48
  %52 = bitcast [20001 x i32]* %4 to i8*
  call void @llvm.lifetime.start.p0i8(i64 80004, i8* nonnull %52) #7
  br i1 %13, label %53, label %102

53:                                               ; preds = %51
  %54 = and i64 %18, 1
  %55 = icmp eq i32 %24, 1
  br i1 %55, label %58, label %56

56:                                               ; preds = %53
  %57 = and i64 %18, 4294967294
  br label %77

58:                                               ; preds = %142, %53
  %59 = phi i32 [ undef, %53 ], [ %143, %142 ]
  %60 = phi i64 [ 0, %53 ], [ %144, %142 ]
  %61 = phi i32 [ 0, %53 ], [ %143, %142 ]
  %62 = icmp eq i64 %54, 0
  br i1 %62, label %71, label %63

63:                                               ; preds = %58
  %64 = getelementptr inbounds [20001 x i32], [20001 x i32]* %3, i64 0, i64 %60
  %65 = load i32, i32* %64, align 4, !tbaa !5
  %66 = icmp eq i32 %65, 0
  br i1 %66, label %71, label %67

67:                                               ; preds = %63
  %68 = sext i32 %61 to i64
  %69 = getelementptr inbounds [20001 x i32], [20001 x i32]* %4, i64 0, i64 %68
  store i32 %65, i32* %69, align 4, !tbaa !5
  %70 = add nsw i32 %61, 1
  br label %71

71:                                               ; preds = %67, %63, %58
  %72 = phi i32 [ %59, %58 ], [ %70, %67 ], [ %61, %63 ]
  %73 = add i32 %72, -1
  %74 = icmp sgt i32 %72, 1
  br i1 %74, label %75, label %102

75:                                               ; preds = %71
  %76 = zext i32 %73 to i64
  br label %94

77:                                               ; preds = %142, %56
  %78 = phi i64 [ 0, %56 ], [ %144, %142 ]
  %79 = phi i32 [ 0, %56 ], [ %143, %142 ]
  %80 = phi i64 [ %57, %56 ], [ %145, %142 ]
  %81 = getelementptr inbounds [20001 x i32], [20001 x i32]* %3, i64 0, i64 %78
  %82 = load i32, i32* %81, align 8, !tbaa !5
  %83 = icmp eq i32 %82, 0
  br i1 %83, label %88, label %84

84:                                               ; preds = %77
  %85 = sext i32 %79 to i64
  %86 = getelementptr inbounds [20001 x i32], [20001 x i32]* %4, i64 0, i64 %85
  store i32 %82, i32* %86, align 4, !tbaa !5
  %87 = add nsw i32 %79, 1
  br label %88

88:                                               ; preds = %77, %84
  %89 = phi i32 [ %87, %84 ], [ %79, %77 ]
  %90 = or i64 %78, 1
  %91 = getelementptr inbounds [20001 x i32], [20001 x i32]* %3, i64 0, i64 %90
  %92 = load i32, i32* %91, align 4, !tbaa !5
  %93 = icmp eq i32 %92, 0
  br i1 %93, label %142, label %138

94:                                               ; preds = %75, %94
  %95 = phi i64 [ 0, %75 ], [ %100, %94 ]
  %96 = getelementptr inbounds [20001 x i32], [20001 x i32]* %4, i64 0, i64 %95
  %97 = load i32, i32* %96, align 4, !tbaa !5
  %98 = call nonnull align 8 dereferenceable(8) %"class.std::basic_ostream"* @_ZNSolsEi(%"class.std::basic_ostream"* nonnull align 8 dereferenceable(8) @_ZSt4cout, i32 %97)
  call void @llvm.lifetime.start.p0i8(i64 1, i8* nonnull %1)
  store i8 32, i8* %1, align 1, !tbaa !13
  %99 = call nonnull align 8 dereferenceable(8) %"class.std::basic_ostream"* @_ZSt16__ostream_insertIcSt11char_traitsIcEERSt13basic_ostreamIT_T0_ES6_PKS3_l(%"class.std::basic_ostream"* nonnull align 8 dereferenceable(8) %98, i8* nonnull %1, i64 1)
  call void @llvm.lifetime.end.p0i8(i64 1, i8* nonnull %1)
  %100 = add nuw nsw i64 %95, 1
  %101 = icmp eq i64 %100, %76
  br i1 %101, label %102, label %94, !llvm.loop !14

102:                                              ; preds = %94, %10, %14, %51, %71
  %103 = phi i32 [ %73, %71 ], [ -1, %51 ], [ -1, %14 ], [ -1, %10 ], [ %73, %94 ]
  %104 = sext i32 %103 to i64
  %105 = getelementptr inbounds [20001 x i32], [20001 x i32]* %4, i64 0, i64 %104
  %106 = load i32, i32* %105, align 4, !tbaa !5
  %107 = call nonnull align 8 dereferenceable(8) %"class.std::basic_ostream"* @_ZNSolsEi(%"class.std::basic_ostream"* nonnull align 8 dereferenceable(8) @_ZSt4cout, i32 %106)
  %108 = bitcast %"class.std::basic_ostream"* %107 to i8**
  %109 = load i8*, i8** %108, align 8, !tbaa !15
  %110 = getelementptr i8, i8* %109, i64 -24
  %111 = bitcast i8* %110 to i64*
  %112 = load i64, i64* %111, align 8
  %113 = bitcast %"class.std::basic_ostream"* %107 to i8*
  %114 = add nsw i64 %112, 240
  %115 = getelementptr inbounds i8, i8* %113, i64 %114
  %116 = bitcast i8* %115 to %"class.std::ctype"**
  %117 = load %"class.std::ctype"*, %"class.std::ctype"** %116, align 8, !tbaa !17
  %118 = icmp eq %"class.std::ctype"* %117, null
  br i1 %118, label %119, label %120

119:                                              ; preds = %102
  call void @_ZSt16__throw_bad_castv() #8
  unreachable

120:                                              ; preds = %102
  %121 = getelementptr inbounds %"class.std::ctype", %"class.std::ctype"* %117, i64 0, i32 8
  %122 = load i8, i8* %121, align 8, !tbaa !21
  %123 = icmp eq i8 %122, 0
  br i1 %123, label %127, label %124

124:                                              ; preds = %120
  %125 = getelementptr inbounds %"class.std::ctype", %"class.std::ctype"* %117, i64 0, i32 9, i64 10
  %126 = load i8, i8* %125, align 1, !tbaa !13
  br label %133

127:                                              ; preds = %120
  call void @_ZNKSt5ctypeIcE13_M_widen_initEv(%"class.std::ctype"* nonnull align 8 dereferenceable(570) %117)
  %128 = bitcast %"class.std::ctype"* %117 to i8 (%"class.std::ctype"*, i8)***
  %129 = load i8 (%"class.std::ctype"*, i8)**, i8 (%"class.std::ctype"*, i8)*** %128, align 8, !tbaa !15
  %130 = getelementptr inbounds i8 (%"class.std::ctype"*, i8)*, i8 (%"class.std::ctype"*, i8)** %129, i64 6
  %131 = load i8 (%"class.std::ctype"*, i8)*, i8 (%"class.std::ctype"*, i8)** %130, align 8
  %132 = call signext i8 %131(%"class.std::ctype"* nonnull align 8 dereferenceable(570) %117, i8 signext 10)
  br label %133

133:                                              ; preds = %124, %127
  %134 = phi i8 [ %126, %124 ], [ %132, %127 ]
  %135 = bitcast [20001 x i32]* %4 to i8*
  %136 = call nonnull align 8 dereferenceable(8) %"class.std::basic_ostream"* @_ZNSo3putEc(%"class.std::basic_ostream"* nonnull align 8 dereferenceable(8) %107, i8 signext %134)
  %137 = call nonnull align 8 dereferenceable(8) %"class.std::basic_ostream"* @_ZNSo5flushEv(%"class.std::basic_ostream"* nonnull align 8 dereferenceable(8) %136)
  call void @llvm.lifetime.end.p0i8(i64 80004, i8* nonnull %135) #7
  call void @llvm.lifetime.end.p0i8(i64 80004, i8* nonnull %6) #7
  call void @llvm.lifetime.end.p0i8(i64 4, i8* nonnull %5) #7
  ret i32 0

138:                                              ; preds = %88
  %139 = sext i32 %89 to i64
  %140 = getelementptr inbounds [20001 x i32], [20001 x i32]* %4, i64 0, i64 %139
  store i32 %92, i32* %140, align 4, !tbaa !5
  %141 = add nsw i32 %89, 1
  br label %142

142:                                              ; preds = %138, %88
  %143 = phi i32 [ %141, %138 ], [ %89, %88 ]
  %144 = add nuw nsw i64 %78, 2
  %145 = add i64 %80, -2
  %146 = icmp eq i64 %145, 0
  br i1 %146, label %58, label %77, !llvm.loop !23
}

; Function Attrs: argmemonly mustprogress nofree nosync nounwind willreturn
declare void @llvm.lifetime.start.p0i8(i64 immarg, i8* nocapture) #4

declare nonnull align 8 dereferenceable(16) %"class.std::basic_istream"* @_ZNSirsERi(%"class.std::basic_istream"* nonnull align 8 dereferenceable(16), i32* nonnull align 4 dereferenceable(4)) local_unnamed_addr #0

declare nonnull align 8 dereferenceable(8) %"class.std::basic_ostream"* @_ZNSolsEi(%"class.std::basic_ostream"* nonnull align 8 dereferenceable(8), i32) local_unnamed_addr #0

; Function Attrs: argmemonly mustprogress nofree nosync nounwind willreturn
declare void @llvm.lifetime.end.p0i8(i64 immarg, i8* nocapture) #4

declare nonnull align 8 dereferenceable(8) %"class.std::basic_ostream"* @_ZSt16__ostream_insertIcSt11char_traitsIcEERSt13basic_ostreamIT_T0_ES6_PKS3_l(%"class.std::basic_ostream"* nonnull align 8 dereferenceable(8), i8*, i64) local_unnamed_addr #0

declare nonnull align 8 dereferenceable(8) %"class.std::basic_ostream"* @_ZNSo3putEc(%"class.std::basic_ostream"* nonnull align 8 dereferenceable(8), i8 signext) local_unnamed_addr #0

declare nonnull align 8 dereferenceable(8) %"class.std::basic_ostream"* @_ZNSo5flushEv(%"class.std::basic_ostream"* nonnull align 8 dereferenceable(8)) local_unnamed_addr #0

; Function Attrs: noreturn
declare void @_ZSt16__throw_bad_castv() local_unnamed_addr #5

declare void @_ZNKSt5ctypeIcE13_M_widen_initEv(%"class.std::ctype"* nonnull align 8 dereferenceable(570)) local_unnamed_addr #0

; Function Attrs: sspstrong uwtable
define internal void @_GLOBAL__sub_I_1360.cpp() #6 section ".text.startup" {
  tail call void @_ZNSt8ios_base4InitC1Ev(%"class.std::ios_base::Init"* nonnull align 1 dereferenceable(1) @_ZStL8__ioinit)
  %1 = tail call i32 @__cxa_atexit(void (i8*)* bitcast (void (%"class.std::ios_base::Init"*)* @_ZNSt8ios_base4InitD1Ev to void (i8*)*), i8* getelementptr inbounds (%"class.std::ios_base::Init", %"class.std::ios_base::Init"* @_ZStL8__ioinit, i64 0, i32 0), i8* nonnull @__dso_handle) #7
  ret void
}


!llvm.module.flags = !{!0, !1, !2, !3}
!llvm.ident = !{!4}

!0 = !{i32 1, !"wchar_size", i32 4}
!1 = !{i32 7, !"PIC Level", i32 2}
!2 = !{i32 7, !"PIE Level", i32 2}
!3 = !{i32 7, !"uwtable", i32 1}
!4 = !{!"clang version 13.0.0"}
!5 = !{!6, !6, i64 0}
!6 = !{!"int", !7, i64 0}
!7 = !{!"omnipotent char", !8, i64 0}
!8 = !{!"Simple C++ TBAA"}
!9 = distinct !{!9, !10}
!10 = !{!"llvm.loop.mustprogress"}
!11 = distinct !{!11, !10}
!12 = distinct !{!12, !10}
!13 = !{!7, !7, i64 0}
!14 = distinct !{!14, !10}
!15 = !{!16, !16, i64 0}
!16 = !{!"vtable pointer", !8, i64 0}
!17 = !{!18, !19, i64 240}
!18 = !{!"_ZTSSt9basic_iosIcSt11char_traitsIcEE", !19, i64 216, !7, i64 224, !20, i64 225, !19, i64 232, !19, i64 240, !19, i64 248, !19, i64 256}
!19 = !{!"any pointer", !7, i64 0}
!20 = !{!"bool", !7, i64 0}
!21 = !{!22, !7, i64 56}
!22 = !{!"_ZTSSt5ctypeIcE", !19, i64 16, !20, i64 24, !19, i64 32, !19, i64 40, !19, i64 48, !7, i64 56, !7, i64 57, !7, i64 313, !7, i64 569}
!23 = distinct !{!23, !10}
